target datalayout = "e-m:e-p270:32:32-p271:32:32-p272:64:64-i64:64-i128:128-f80:128-n8:16:32:64-S128"
target triple = "x86_64-pc-linux-gnu"

%"class.google::protobuf::RepeatedField" = type { i32, i32, ptr }

; Function Attrs: mustprogress nounwind uwtable
define available_externally noundef ptr @_ZNK6google8protobuf13RepeatedFieldIiE15unsafe_elementsEv(ptr noundef nonnull align 8 dereferenceable(16) %0) #8 align 2 {
  %2 = alloca ptr, align 8
  store ptr %0, ptr %2, align 8, !tbaa !54
  %3 = load ptr, ptr %2, align 8
  %4 = getelementptr inbounds nuw %"class.google::protobuf::RepeatedField", ptr %3, i32 0, i32 2
  %5 = load ptr, ptr %4, align 8, !tbaa !129
  ret ptr %5
}

; Function Attrs: mustprogress nounwind uwtable
define internal noundef i64 @_ZN6google8protobuf8internalL10VarintSizeILb0ELb1EiEEmPKT1_i(ptr noundef %0, i32 noundef %1) #8 {
  %3 = alloca ptr, align 8
  %4 = alloca i32, align 4
  %5 = alloca i32, align 4
  %6 = alloca i32, align 4
  %7 = alloca i32, align 4
  %8 = alloca i32, align 4
  store ptr %0, ptr %3, align 8, !tbaa !28
  store i32 %1, ptr %4, align 4, !tbaa !8
  call void @llvm.lifetime.start.p0(i64 4, ptr %5) #3
  %9 = load i32, ptr %4, align 4, !tbaa !8
  store i32 %9, ptr %5, align 4, !tbaa !8
  call void @llvm.lifetime.start.p0(i64 4, ptr %6) #3
  store i32 0, ptr %6, align 4, !tbaa !8
  call void @llvm.lifetime.start.p0(i64 4, ptr %7) #3
  store i32 0, ptr %7, align 4, !tbaa !8
  br label %10

10:                                               ; preds = %49, %2
  %11 = load i32, ptr %7, align 4, !tbaa !8
  %12 = load i32, ptr %4, align 4, !tbaa !8
  %13 = icmp slt i32 %11, %12
  br i1 %13, label %15, label %14

14:                                               ; preds = %10
  call void @llvm.lifetime.end.p0(i64 4, ptr %7) #3
  br label %52

15:                                               ; preds = %10
  call void @llvm.lifetime.start.p0(i64 4, ptr %8) #3
  %16 = load ptr, ptr %3, align 8, !tbaa !28
  %17 = load i32, ptr %7, align 4, !tbaa !8
  %18 = sext i32 %17 to i64
  %19 = getelementptr inbounds i32, ptr %16, i64 %18
  %20 = load i32, ptr %19, align 4, !tbaa !8
  store i32 %20, ptr %8, align 4, !tbaa !8
  %21 = load i32, ptr %8, align 4, !tbaa !8
  %22 = lshr i32 %21, 31
  %23 = load i32, ptr %6, align 4, !tbaa !8
  %24 = add i32 %23, %22
  store i32 %24, ptr %6, align 4, !tbaa !8
  %25 = load i32, ptr %8, align 4, !tbaa !8
  %26 = icmp ugt i32 %25, 127
  br i1 %26, label %27, label %30

27:                                               ; preds = %15
  %28 = load i32, ptr %5, align 4, !tbaa !8
  %29 = add i32 %28, 1
  store i32 %29, ptr %5, align 4, !tbaa !8
  br label %30

30:                                               ; preds = %27, %15
  %31 = load i32, ptr %8, align 4, !tbaa !8
  %32 = icmp ugt i32 %31, 16383
  br i1 %32, label %33, label %36

33:                                               ; preds = %30
  %34 = load i32, ptr %5, align 4, !tbaa !8
  %35 = add i32 %34, 1
  store i32 %35, ptr %5, align 4, !tbaa !8
  br label %36

36:                                               ; preds = %33, %30
  %37 = load i32, ptr %8, align 4, !tbaa !8
  %38 = icmp ugt i32 %37, 2097151
  br i1 %38, label %39, label %42

39:                                               ; preds = %36
  %40 = load i32, ptr %5, align 4, !tbaa !8
  %41 = add i32 %40, 1
  store i32 %41, ptr %5, align 4, !tbaa !8
  br label %42

42:                                               ; preds = %39, %36
  %43 = load i32, ptr %8, align 4, !tbaa !8
  %44 = icmp ugt i32 %43, 268435455
  br i1 %44, label %45, label %48

45:                                               ; preds = %42
  %46 = load i32, ptr %5, align 4, !tbaa !8
  %47 = add i32 %46, 1
  store i32 %47, ptr %5, align 4, !tbaa !8
  br label %48

48:                                               ; preds = %45, %42
  call void @llvm.lifetime.end.p0(i64 4, ptr %8) #3
  br label %49

49:                                               ; preds = %48
  %50 = load i32, ptr %7, align 4, !tbaa !8
  %51 = add nsw i32 %50, 1
  store i32 %51, ptr %7, align 4, !tbaa !8
  br label %10, !llvm.loop !86

52:                                               ; preds = %14
  %53 = load i32, ptr %6, align 4, !tbaa !8
  %54 = mul i32 %53, 5
  %55 = load i32, ptr %5, align 4, !tbaa !8
  %56 = add i32 %55, %54
  store i32 %56, ptr %5, align 4, !tbaa !8
  %57 = load i32, ptr %5, align 4, !tbaa !8
  %58 = zext i32 %57 to i64
  call void @llvm.lifetime.end.p0(i64 4, ptr %6) #3
  call void @llvm.lifetime.end.p0(i64 4, ptr %5) #3
  ret i64 %58
}

; Function Attrs: inlinehint mustprogress nounwind uwtable
define available_externally noundef i32 @_ZNK6google8protobuf13RepeatedFieldIiE4sizeEv(ptr noundef nonnull align 8 dereferenceable(16) %0) #5 align 2 {
  %2 = alloca ptr, align 8
  store ptr %0, ptr %2, align 8, !tbaa !54
  %3 = load ptr, ptr %2, align 8
  %4 = getelementptr inbounds nuw %"class.google::protobuf::RepeatedField", ptr %3, i32 0, i32 0
  %5 = load i32, ptr %4, align 8, !tbaa !57
  ret i32 %5
}

; Function Attrs: inlinehint mustprogress nounwind uwtable
define available_externally noundef ptr @_ZNK6google8protobuf13RepeatedFieldIiE4dataEv(ptr noundef nonnull align 8 dereferenceable(16) %0) #5 align 2 {
  %2 = alloca ptr, align 8
  store ptr %0, ptr %2, align 8, !tbaa !54
  %3 = load ptr, ptr %2, align 8
  %4 = call noundef ptr @_ZNK6google8protobuf13RepeatedFieldIiE15unsafe_elementsEv(ptr noundef nonnull align 8 dereferenceable(16) %3)
  ret ptr %4
}

; Function Attrs: mustprogress uwtable
define hidden noundef i64 @_ZN6google8protobuf8internal14WireFormatLite9Int32SizeERKNS0_13RepeatedFieldIiEE(ptr noundef nonnull align 8 dereferenceable(16) %0) #4 align 2 {
  %2 = alloca ptr, align 8
  store ptr %0, ptr %2, align 8, !tbaa !54
  %3 = load ptr, ptr %2, align 8, !tbaa !54
  %4 = call noundef ptr @_ZNK6google8protobuf13RepeatedFieldIiE4dataEv(ptr noundef nonnull align 8 dereferenceable(16) %3)
  %5 = load ptr, ptr %2, align 8, !tbaa !54
  %6 = call noundef i32 @_ZNK6google8protobuf13RepeatedFieldIiE4sizeEv(ptr noundef nonnull align 8 dereferenceable(16) %5)
  %7 = call noundef i64 @_ZN6google8protobuf8internalL10VarintSizeILb0ELb1EiEEmPKT1_i(ptr noundef %4, i32 noundef %6)
  ret i64 %7
}